; Function Attrs: nounwind uwtable
define ptr @l_Lake_OutStream_getLogger___rarg___lambda__1(ptr noundef %0, i8 noundef zeroext %1, i8 noundef zeroext %2, ptr noundef %3, ptr noundef %4) local_unnamed_addr #1 {
  tail call void @lean_inc_heartbeat() #9
  %6 = tail call noalias ptr @mi_malloc_small(i64 noundef 56) #9
  %7 = icmp eq ptr %6, null
  br i1 %7, label %8, label %lean_alloc_closure.exit

8:                                                ; preds = %5
  tail call void @lean_internal_panic_out_of_memory() #10
  unreachable

lean_alloc_closure.exit:                          ; preds = %5
  %9 = zext i8 %2 to i64
  %10 = shl nuw nsw i64 %9, 1
  %11 = or disjoint i64 %10, 1
  %12 = inttoptr i64 %11 to ptr
  %13 = zext i8 %1 to i64
  %14 = shl nuw nsw i64 %13, 1
  %15 = or disjoint i64 %14, 1
  %16 = inttoptr i64 %15 to ptr
  %17 = getelementptr inbounds nuw i8, ptr %6, i64 4
  store i32 1, ptr %6, align 4, !tbaa !4
  store i32 -184549320, ptr %17, align 4
  %18 = getelementptr inbounds nuw i8, ptr %6, i64 8
  store ptr @l_Lake_logToStream___boxed, ptr %18, align 8, !tbaa !10
  %19 = getelementptr inbounds nuw i8, ptr %6, i64 16
  store i16 5, ptr %19, align 8, !tbaa !12
  %20 = getelementptr inbounds nuw i8, ptr %6, i64 18
  store i16 4, ptr %20, align 2, !tbaa !12
  %21 = getelementptr inbounds nuw i8, ptr %6, i64 24
  store ptr %4, ptr %21, align 8, !tbaa !10
  %22 = getelementptr inbounds nuw i8, ptr %6, i64 32
  store ptr %0, ptr %22, align 8, !tbaa !10
  %23 = getelementptr inbounds nuw i8, ptr %6, i64 40
  store ptr %16, ptr %23, align 8, !tbaa !10
  %24 = getelementptr inbounds nuw i8, ptr %6, i64 48
  store ptr %12, ptr %24, align 8, !tbaa !10
  %25 = tail call ptr @lean_apply_2(ptr noundef %3, ptr noundef nonnull inttoptr (i64 1 to ptr), ptr noundef nonnull %6) #9
  ret ptr %25
}